; Function Attrs: mustprogress nounwind uwtable
define void @_ZN3gmx19SelectionCollection4Impl16clearSymbolTableEv(ptr nocapture noundef nonnull align 8 dereferenceable(224) %0) local_unnamed_addr #3 align 2 personality ptr @__gxx_personality_v0 {
  %2 = getelementptr inbounds i8, ptr %0, i64 104
  %3 = load ptr, ptr %2, align 8
  store ptr null, ptr %2, align 8
  %.not.i.i = icmp eq ptr %3, null
  br i1 %.not.i.i, label %_ZNSt10unique_ptrIN3gmx26SelectionParserSymbolTableESt14default_deleteIS1_EE5resetEPS1_.exit, label %_ZNKSt14default_deleteIN3gmx26SelectionParserSymbolTableEEclEPS1_.exit.i.i

_ZNKSt14default_deleteIN3gmx26SelectionParserSymbolTableEEclEPS1_.exit.i.i: ; preds = %1
  tail call void @_ZN3gmx26SelectionParserSymbolTableD1Ev(ptr noundef nonnull align 8 dereferenceable(8) %3) #22
  tail call void @_ZdlPv(ptr noundef nonnull %3) #24
  br label %_ZNSt10unique_ptrIN3gmx26SelectionParserSymbolTableESt14default_deleteIS1_EE5resetEPS1_.exit

_ZNSt10unique_ptrIN3gmx26SelectionParserSymbolTableESt14default_deleteIS1_EE5resetEPS1_.exit: ; preds = %1, %_ZNKSt14default_deleteIN3gmx26SelectionParserSymbolTableEEclEPS1_.exit.i.i
  ret void
}